target datalayout = "e-m:e-p270:32:32-p271:32:32-p272:64:64-i64:64-i128:128-f80:128-n8:16:32:64-S128"
target triple = "x86_64-pc-linux-gnu"

%union.LWLockPadded = type { %struct.LWLock, [112 x i8] }
%struct.LWLock = type { i16, %struct.pg_atomic_uint32, %struct.proclist_head }
%struct.pg_atomic_uint32 = type { i32 }
%struct.proclist_head = type { i32, i32 }
%struct.PredXactListData = type { %struct.dlist_head, %struct.dlist_head, i32, i32, i32, i64, i64, i64, ptr, ptr }
%struct.dlist_head = type { %struct.dlist_node }
%struct.dlist_node = type { ptr, ptr }
%struct.SERIALIZABLEXACT = type { %struct.VirtualTransactionId, i64, i64, %union.anon, %struct.dlist_head, %struct.dlist_head, %struct.dlist_head, %struct.dlist_node, %struct.dlist_node, %struct.LWLock, %struct.dlist_head, i32, i32, i32, i32, i32, i32 }
%struct.VirtualTransactionId = type { i32, i32 }
%union.anon = type { i64 }
%struct.RWConflictData = type { %struct.dlist_node, %struct.dlist_node, ptr, ptr }
%struct.dlist_iter = type { ptr, ptr }

@MainLWLockArray = external global ptr, align 8
@PredXact = internal global ptr null, align 8

; Function Attrs: nounwind uwtable
define dso_local i32 @GetSafeSnapshotBlockingPids(i32 noundef %0, ptr noundef %1, i32 noundef %2) #0 {
  %4 = alloca i32, align 4
  %5 = alloca ptr, align 8
  %6 = alloca i32, align 4
  %7 = alloca i32, align 4
  %8 = alloca %struct.dlist_iter, align 8
  %9 = alloca ptr, align 8
  %10 = alloca i32, align 4
  %11 = alloca i32, align 4
  %12 = alloca ptr, align 8
  %13 = alloca i32, align 4
  %14 = alloca i32, align 4
  %15 = alloca i32, align 4
  %16 = alloca i32, align 4
  %17 = alloca i32, align 4
  %18 = alloca ptr, align 8
  %19 = alloca i32, align 4
  %20 = alloca i32, align 4
  store i32 %0, ptr %4, align 4
  store ptr %1, ptr %5, align 8
  store i32 %2, ptr %6, align 4
  call void @llvm.lifetime.start.p0(i64 4, ptr %7) #10
  store i32 0, ptr %7, align 4
  call void @llvm.lifetime.start.p0(i64 16, ptr %8) #10
  call void @llvm.lifetime.start.p0(i64 8, ptr %9) #10
  store ptr null, ptr %9, align 8
  %21 = load ptr, ptr @MainLWLockArray, align 8
  %22 = getelementptr inbounds %union.LWLockPadded, ptr %21, i64 28
  %23 = call zeroext i1 @LWLockAcquire(ptr noundef %22, i32 noundef 1)
  br label %24

24:                                               ; preds = %3
  br label %25

25:                                               ; preds = %24
  br label %26

26:                                               ; preds = %25
  store i32 1, ptr %10, align 4
  br label %27

27:                                               ; preds = %26
  br label %28

28:                                               ; preds = %27
  br label %29

29:                                               ; preds = %28
  store i32 1, ptr %11, align 4
  %30 = load ptr, ptr @PredXact, align 8
  %31 = getelementptr inbounds nuw %struct.PredXactListData, ptr %30, i32 0, i32 1
  %32 = getelementptr inbounds nuw %struct.dlist_head, ptr %31, i32 0, i32 0
  %33 = getelementptr inbounds nuw %struct.dlist_iter, ptr %8, i32 0, i32 1
  store ptr %32, ptr %33, align 8
  %34 = getelementptr inbounds nuw %struct.dlist_iter, ptr %8, i32 0, i32 1
  %35 = load ptr, ptr %34, align 8
  %36 = getelementptr inbounds nuw %struct.dlist_node, ptr %35, i32 0, i32 1
  %37 = load ptr, ptr %36, align 8
  %38 = icmp ne ptr %37, null
  br i1 %38, label %39, label %44

39:                                               ; preds = %29
  %40 = getelementptr inbounds nuw %struct.dlist_iter, ptr %8, i32 0, i32 1
  %41 = load ptr, ptr %40, align 8
  %42 = getelementptr inbounds nuw %struct.dlist_node, ptr %41, i32 0, i32 1
  %43 = load ptr, ptr %42, align 8
  br label %47

44:                                               ; preds = %29
  %45 = getelementptr inbounds nuw %struct.dlist_iter, ptr %8, i32 0, i32 1
  %46 = load ptr, ptr %45, align 8
  br label %47

47:                                               ; preds = %44, %39
  %48 = phi ptr [ %43, %39 ], [ %46, %44 ]
  %49 = getelementptr inbounds nuw %struct.dlist_iter, ptr %8, i32 0, i32 0
  store ptr %48, ptr %49, align 8
  br label %50

50:                                               ; preds = %77, %47
  %51 = getelementptr inbounds nuw %struct.dlist_iter, ptr %8, i32 0, i32 0
  %52 = load ptr, ptr %51, align 8
  %53 = getelementptr inbounds nuw %struct.dlist_iter, ptr %8, i32 0, i32 1
  %54 = load ptr, ptr %53, align 8
  %55 = icmp ne ptr %52, %54
  br i1 %55, label %56, label %83

56:                                               ; preds = %50
  call void @llvm.lifetime.start.p0(i64 8, ptr %12) #10
  br label %57

57:                                               ; preds = %56
  br label %58

58:                                               ; preds = %57
  br label %59

59:                                               ; preds = %58
  store i32 1, ptr %13, align 4
  br label %60

60:                                               ; preds = %59
  br label %61

61:                                               ; preds = %60
  br label %62

62:                                               ; preds = %61
  store i32 1, ptr %14, align 4
  %63 = getelementptr inbounds nuw %struct.dlist_iter, ptr %8, i32 0, i32 0
  %64 = load ptr, ptr %63, align 8
  %65 = getelementptr inbounds i8, ptr %64, i64 -96
  store ptr %65, ptr %12, align 8
  %66 = load ptr, ptr %12, align 8
  %67 = getelementptr inbounds nuw %struct.SERIALIZABLEXACT, ptr %66, i32 0, i32 15
  %68 = load i32, ptr %67, align 8
  %69 = load i32, ptr %4, align 4
  %70 = icmp eq i32 %68, %69
  br i1 %70, label %71, label %73

71:                                               ; preds = %62
  %72 = load ptr, ptr %12, align 8
  store ptr %72, ptr %9, align 8
  store i32 2, ptr %15, align 4
  br label %74

73:                                               ; preds = %62
  store i32 0, ptr %15, align 4
  br label %74

74:                                               ; preds = %73, %71
  call void @llvm.lifetime.end.p0(i64 8, ptr %12) #10
  %75 = load i32, ptr %15, align 4
  switch i32 %75, label %164 [
    i32 0, label %76
    i32 2, label %83
  ]

76:                                               ; preds = %74
  br label %77

77:                                               ; preds = %76
  %78 = getelementptr inbounds nuw %struct.dlist_iter, ptr %8, i32 0, i32 0
  %79 = load ptr, ptr %78, align 8
  %80 = getelementptr inbounds nuw %struct.dlist_node, ptr %79, i32 0, i32 1
  %81 = load ptr, ptr %80, align 8
  %82 = getelementptr inbounds nuw %struct.dlist_iter, ptr %8, i32 0, i32 0
  store ptr %81, ptr %82, align 8
  br label %50, !llvm.loop !12

83:                                               ; preds = %74, %50
  %84 = load ptr, ptr %9, align 8
  %85 = icmp ne ptr %84, null
  br i1 %85, label %86, label %160

86:                                               ; preds = %83
  %87 = load ptr, ptr %9, align 8
  %88 = getelementptr inbounds nuw %struct.SERIALIZABLEXACT, ptr %87, i32 0, i32 14
  %89 = load i32, ptr %88, align 4
  %90 = and i32 %89, 64
  %91 = icmp ne i32 %90, 0
  br i1 %91, label %92, label %160

92:                                               ; preds = %86
  br label %93

93:                                               ; preds = %92
  br label %94

94:                                               ; preds = %93
  br label %95

95:                                               ; preds = %94
  store i32 1, ptr %16, align 4
  br label %96

96:                                               ; preds = %95
  br label %97

97:                                               ; preds = %96
  br label %98

98:                                               ; preds = %97
  store i32 1, ptr %17, align 4
  %99 = load ptr, ptr %9, align 8
  %100 = getelementptr inbounds nuw %struct.SERIALIZABLEXACT, ptr %99, i32 0, i32 10
  %101 = getelementptr inbounds nuw %struct.dlist_head, ptr %100, i32 0, i32 0
  %102 = getelementptr inbounds nuw %struct.dlist_iter, ptr %8, i32 0, i32 1
  store ptr %101, ptr %102, align 8
  %103 = getelementptr inbounds nuw %struct.dlist_iter, ptr %8, i32 0, i32 1
  %104 = load ptr, ptr %103, align 8
  %105 = getelementptr inbounds nuw %struct.dlist_node, ptr %104, i32 0, i32 1
  %106 = load ptr, ptr %105, align 8
  %107 = icmp ne ptr %106, null
  br i1 %107, label %108, label %113

108:                                              ; preds = %98
  %109 = getelementptr inbounds nuw %struct.dlist_iter, ptr %8, i32 0, i32 1
  %110 = load ptr, ptr %109, align 8
  %111 = getelementptr inbounds nuw %struct.dlist_node, ptr %110, i32 0, i32 1
  %112 = load ptr, ptr %111, align 8
  br label %116

113:                                              ; preds = %98
  %114 = getelementptr inbounds nuw %struct.dlist_iter, ptr %8, i32 0, i32 1
  %115 = load ptr, ptr %114, align 8
  br label %116

116:                                              ; preds = %113, %108
  %117 = phi ptr [ %112, %108 ], [ %115, %113 ]
  %118 = getelementptr inbounds nuw %struct.dlist_iter, ptr %8, i32 0, i32 0
  store ptr %117, ptr %118, align 8
  br label %119

119:                                              ; preds = %153, %116
  %120 = getelementptr inbounds nuw %struct.dlist_iter, ptr %8, i32 0, i32 0
  %121 = load ptr, ptr %120, align 8
  %122 = getelementptr inbounds nuw %struct.dlist_iter, ptr %8, i32 0, i32 1
  %123 = load ptr, ptr %122, align 8
  %124 = icmp ne ptr %121, %123
  br i1 %124, label %125, label %159

125:                                              ; preds = %119
  call void @llvm.lifetime.start.p0(i64 8, ptr %18) #10
  br label %126

126:                                              ; preds = %125
  br label %127

127:                                              ; preds = %126
  br label %128

128:                                              ; preds = %127
  store i32 1, ptr %19, align 4
  br label %129

129:                                              ; preds = %128
  br label %130

130:                                              ; preds = %129
  br label %131

131:                                              ; preds = %130
  store i32 1, ptr %20, align 4
  %132 = getelementptr inbounds nuw %struct.dlist_iter, ptr %8, i32 0, i32 0
  %133 = load ptr, ptr %132, align 8
  %134 = getelementptr inbounds i8, ptr %133, i64 -16
  store ptr %134, ptr %18, align 8
  %135 = load ptr, ptr %18, align 8
  %136 = getelementptr inbounds nuw %struct.RWConflictData, ptr %135, i32 0, i32 2
  %137 = load ptr, ptr %136, align 8
  %138 = getelementptr inbounds nuw %struct.SERIALIZABLEXACT, ptr %137, i32 0, i32 15
  %139 = load i32, ptr %138, align 8
  %140 = load ptr, ptr %5, align 8
  %141 = load i32, ptr %7, align 4
  %142 = add i32 %141, 1
  store i32 %142, ptr %7, align 4
  %143 = sext i32 %141 to i64
  %144 = getelementptr inbounds i32, ptr %140, i64 %143
  store i32 %139, ptr %144, align 4
  %145 = load i32, ptr %7, align 4
  %146 = load i32, ptr %6, align 4
  %147 = icmp sge i32 %145, %146
  br i1 %147, label %148, label %149

148:                                              ; preds = %131
  store i32 13, ptr %15, align 4
  br label %150

149:                                              ; preds = %131
  store i32 0, ptr %15, align 4
  br label %150

150:                                              ; preds = %149, %148
  call void @llvm.lifetime.end.p0(i64 8, ptr %18) #10
  %151 = load i32, ptr %15, align 4
  switch i32 %151, label %164 [
    i32 0, label %152
    i32 13, label %159
  ]

152:                                              ; preds = %150
  br label %153

153:                                              ; preds = %152
  %154 = getelementptr inbounds nuw %struct.dlist_iter, ptr %8, i32 0, i32 0
  %155 = load ptr, ptr %154, align 8
  %156 = getelementptr inbounds nuw %struct.dlist_node, ptr %155, i32 0, i32 1
  %157 = load ptr, ptr %156, align 8
  %158 = getelementptr inbounds nuw %struct.dlist_iter, ptr %8, i32 0, i32 0
  store ptr %157, ptr %158, align 8
  br label %119, !llvm.loop !13

159:                                              ; preds = %150, %119
  br label %160

160:                                              ; preds = %159, %86, %83
  %161 = load ptr, ptr @MainLWLockArray, align 8
  %162 = getelementptr inbounds %union.LWLockPadded, ptr %161, i64 28
  call void @LWLockRelease(ptr noundef %162)
  %163 = load i32, ptr %7, align 4
  store i32 1, ptr %15, align 4
  call void @llvm.lifetime.end.p0(i64 8, ptr %9) #10
  call void @llvm.lifetime.end.p0(i64 16, ptr %8) #10
  call void @llvm.lifetime.end.p0(i64 4, ptr %7) #10
  ret i32 %163

164:                                              ; preds = %150, %74
  unreachable
}