; Function Attrs: nounwind uwtable
define dso_local i32 @GetSafeSnapshotBlockingPids(i32 noundef %0, ptr noundef writeonly captures(none) %1, i32 noundef %2) local_unnamed_addr #0 {
  %4 = load ptr, ptr @MainLWLockArray, align 8
  %5 = getelementptr inbounds nuw i8, ptr %4, i64 3584
  %6 = tail call zeroext i1 @LWLockAcquire(ptr noundef nonnull %5, i32 noundef 1) #12
  %7 = load ptr, ptr @PredXact, align 8
  %8 = getelementptr inbounds nuw i8, ptr %7, i64 16
  %9 = getelementptr inbounds nuw i8, ptr %7, i64 24
  %10 = load ptr, ptr %9, align 8
  %.not = icmp eq ptr %10, null
  %.not314152 = icmp eq ptr %10, %8
  %.not3141 = select i1 %.not, i1 true, i1 %.not314152
  br i1 %.not3141, label %.loopexit, label %.lr.ph

.lr.ph:                                           ; preds = %3, %14
  %.sroa.0.042 = phi ptr [ %16, %14 ], [ %10, %3 ]
  %11 = getelementptr inbounds nuw i8, ptr %.sroa.0.042, i64 64
  %12 = load i32, ptr %11, align 8
  %13 = icmp eq i32 %12, %0
  br i1 %13, label %17, label %14

14:                                               ; preds = %.lr.ph
  %15 = getelementptr inbounds nuw i8, ptr %.sroa.0.042, i64 8
  %16 = load ptr, ptr %15, align 8
  %.not31 = icmp eq ptr %16, %8
  br i1 %.not31, label %.loopexit, label %.lr.ph, !llvm.loop !12

17:                                               ; preds = %.lr.ph
  %18 = getelementptr inbounds nuw i8, ptr %.sroa.0.042, i64 60
  %19 = load i32, ptr %18, align 4
  %20 = and i32 %19, 64
  %.not33 = icmp eq i32 %20, 0
  br i1 %.not33, label %.loopexit, label %21

21:                                               ; preds = %17
  %22 = getelementptr inbounds nuw i8, ptr %.sroa.0.042, i64 32
  %23 = getelementptr inbounds nuw i8, ptr %.sroa.0.042, i64 40
  %24 = load ptr, ptr %23, align 8
  %.not34 = icmp eq ptr %24, null
  %.not354353 = icmp eq ptr %24, %22
  %.not3543 = select i1 %.not34, i1 true, i1 %.not354353
  br i1 %.not3543, label %.loopexit, label %.lr.ph46.preheader

.lr.ph46.preheader:                               ; preds = %21
  %smax = tail call i32 @llvm.smax.i32(i32 %2, i32 1)
  %25 = add nsw i32 %smax, -1
  %wide.trip.count = zext nneg i32 %25 to i64
  br label %.lr.ph46

.lr.ph46:                                         ; preds = %.lr.ph46.preheader, %31
  %indvars.iv = phi i64 [ 0, %.lr.ph46.preheader ], [ %indvars.iv.next, %31 ]
  %.sroa.0.144 = phi ptr [ %24, %.lr.ph46.preheader ], [ %33, %31 ]
  %26 = getelementptr inbounds nuw i8, ptr %.sroa.0.144, i64 16
  %27 = load ptr, ptr %26, align 8
  %28 = getelementptr inbounds nuw i8, ptr %27, i64 160
  %29 = load i32, ptr %28, align 8
  %30 = getelementptr inbounds nuw i32, ptr %1, i64 %indvars.iv
  store i32 %29, ptr %30, align 4
  %exitcond.not = icmp eq i64 %indvars.iv, %wide.trip.count
  br i1 %exitcond.not, label %.loopexit, label %31

31:                                               ; preds = %.lr.ph46
  %indvars.iv.next = add nuw nsw i64 %indvars.iv, 1
  %32 = getelementptr inbounds nuw i8, ptr %.sroa.0.144, i64 8
  %33 = load ptr, ptr %32, align 8
  %.not35 = icmp eq ptr %33, %22
  br i1 %.not35, label %.loopexit.loopexit.split.loop.exit58, label %.lr.ph46, !llvm.loop !13

.loopexit.loopexit.split.loop.exit58:             ; preds = %31
  %34 = trunc nuw nsw i64 %indvars.iv.next to i32
  br label %.loopexit

.loopexit:                                        ; preds = %14, %.lr.ph46, %.loopexit.loopexit.split.loop.exit58, %3, %21, %17
  %.0 = phi i32 [ 0, %17 ], [ 0, %21 ], [ 0, %3 ], [ %34, %.loopexit.loopexit.split.loop.exit58 ], [ %smax, %.lr.ph46 ], [ 0, %14 ]
  %35 = load ptr, ptr @MainLWLockArray, align 8
  %36 = getelementptr inbounds nuw i8, ptr %35, i64 3584
  tail call void @LWLockRelease(ptr noundef nonnull %36) #12
  ret i32 %.0
}